(dp0
S'UMTD_School_Floorplan_updated'
p1
(dp2
S' transError.mean.std'
p3
F0.0657868781063171
sS' Voronoi rotation'
p4
F228.846914713
sS' rotError.mean.mean'
p5
F0.026540956521739132
sS'dataset'
p6
g1
sS' totalLen'
p7
F912.1322716367877
sS' transError.mean.mean'
p8
F0.5303782608695652
sS' totalRot'
p9
F518.2635769027464
sS' Voronoi distance'
p10
F510.495334652962
sS' rotError.mean.std'
p11
F0.0032110709168270096
ssS'Ursy1_updated'
p12
(dp13
g3
F0.04568718026711591
sg4
F169.674199734
sg5
F0.020676481481481487
sg6
g12
sg7
F334.88319490336
sg8
F0.3138954074074074
sg9
F237.91917851743872
sg10
F423.67066087201255
sg11
F0.004623236888126233
ssS'Vipiteno2_updated'
p14
(dp15
g3
F0.05875413426090341
sg4
F222.885485102
sg5
F0.02591758333333333
sg6
g14
sg7
F422.59913849159017
sg8
F0.4095175416666667
sg9
F279.17645142909333
sg10
F398.59340593135687
sg11
F0.010679869864674799
ssS'office_f'
p16
(dp17
g3
F0.05969381030886851
sg4
F263.899719496
sg5
F0.034766411764705886
sg6
g16
sg7
F1447.1122092567598
sg8
F1.0394065000000001
sg9
F669.4315384498609
sg10
F1023.7519582293928
sg11
F0.0058172864005259315
ssS'scuola_secondaria_i_grado_mera__updated'
p18
(dp19
g3
F0.03178498049881341
sg4
F112.830833207
sg5
F0.011492696428571429
sg6
g18
sg7
F133.4070670996114
sg8
F0.13030160714285713
sg9
F114.1570607340523
sg10
F165.08778709300032
sg11
F0.003394117010776792
ssS'columns'
p20
(lp21
g6
ag10
ag4
ag7
ag9
ag8
ag3
ag5
ag11
asS'freiburg79'
p22
(dp23
g3
F0.04962308677625851
sg4
F122.206577678
sg5
F0.018792499999999997
sg6
g22
sg7
F386.4388524077259
sg8
F0.3797592857142857
sg9
F238.98942348262275
sg10
F319.56630583785477
sg11
F0.002469102171987681
ssS'herndon_updated'
p24
(dp25
g3
F0.05449107457613468
sg4
F245.471844118
sg5
F0.02313811627906977
sg6
g24
sg7
F697.7706155033353
sg8
F0.42005683720930237
sg9
F370.43264800370764
sg10
F511.0106351767826
sg11
F0.0037358574322263736
ssS'autoSales_updated'
p26
(dp27
g3
F0.04142785842471368
sg4
F130.35912452
sg5
F0.017937102564102563
sg6
g26
sg7
F214.03098888125126
sg8
F0.22739666666666672
sg9
F180.35564698660417
sg10
F253.09529016134942
sg11
F0.003332993178502192
ssS'Ideas_updated'
p28
(dp29
g3
F0.09004175211496274
sg4
F275.627581274
sg5
F0.04261614285714286
sg6
g28
sg7
F1620.9084354347858
sg8
F1.1017626785714285
sg9
F783.9695018529221
sg10
F1382.9994657714776
sg11
F0.00899826329558847
ssS'11-4'
p30
(dp31
g3
F0.05242897758195434
sg4
F315.751094187
sg5
F0.026278245283018867
sg6
g30
sg7
F879.7457125043063
sg8
F0.5191198867924528
sg9
F508.9438628367739
sg10
F835.5625758293434
sg11
F0.002543125954230644
ssS'11-0'
p32
(dp33
g3
F0.08064198963628233
sg4
F142.797636875
sg5
F0.03640675000000001
sg6
g32
sg7
F751.6638684266035
sg8
F0.6032494583333333
sg9
F492.9183933660872
sg10
F467.9583933426243
sg11
F0.01266811461981748
ssS'henderson_high_school_updated'
p34
(dp35
g3
F0.07942447643799609
sg4
F441.608934353
sg5
F0.030822799999999997
sg6
g34
sg7
F1440.467663170068
sg8
F0.8173320857142856
sg9
F663.4501918019621
sg10
F1035.3332160899097
sg11
F0.005359331812295793
ssS'Sabadell1_updated'
p36
(dp37
g3
F0.04347426313125451
sg4
F124.176524827
sg5
F0.01949245238095238
sg6
g36
sg7
F231.154973822987
sg8
F0.24004483333333337
sg9
F208.75244574998737
sg10
F175.16157708831946
sg11
F0.004611057905691187
ssS'floorplanMAIN_updated'
p38
(dp39
g3
F0.038849959355842546
sg4
F351.453185208
sg5
F0.026284055555555557
sg6
g38
sg7
F722.782817685526
sg8
F0.3912202222222222
sg9
F500.4558557620595
sg10
F640.7611255313213
sg11
F0.0046995137392928715
ssS'office_h'
p40
(dp41
g3
F0.05662016567721747
sg4
F185.16040733
sg5
F0.026106666666666663
sg6
g40
sg7
F678.4439329171622
sg8
F0.5248021333333335
sg9
F429.3607881970845
sg10
F501.72666479222914
sg11
F0.003582025212393434
ssS'E18-1'
p42
(dp43
g3
F0.10926174264162375
sg4
F393.549964273
sg5
F0.037879068965517244
sg6
g42
sg7
F1952.6263175071522
sg8
F1.2645861379310348
sg9
F806.7077009096805
sg10
F1423.4433936027538
sg11
F0.0048838319320049645
ssS'E18-3'
p44
(dp45
g3
F0.10247884084230027
sg4
F476.508151773
sg5
F0.03834489583333334
sg6
g44
sg7
F1992.2552690780915
sg8
F1.1849816874999999
sg9
F936.6348585033438
sg10
F1470.633298918033
sg11
F0.004354572746165726
ssS'FALAELEM2_updated'
p46
(dp47
g3
F0.06714366552458347
sg4
F286.646004012
sg5
F0.03427275757575758
sg6
g46
sg7
F2187.659662407948
sg8
F1.1374342727272726
sg9
F766.9207518525812
sg10
F904.0557743567012
sg11
F0.0025837593591662078
ssS'W8-1'
p48
(dp49
g3
F0.09726108468611366
sg4
F256.310305127
sg5
F0.040052025000000005
sg6
g48
sg7
F1514.9668952556542
sg8
F0.9856833249999999
sg9
F792.186350215288
sg10
F1111.320216453997
sg11
F0.007240945540768484
ssS'VarzeaPaulistaFDE1_updated'
p50
(dp51
g3
F0.05270936657106193
sg4
F101.938126227
sg5
F0.01904990322580645
sg6
g50
sg7
F544.2536987701152
sg8
F0.38377500000000003
sg9
F245.11461639953978
sg10
F401.7088610344233
sg11
F0.006274352995071586
ssS'indian_head_updated'
p52
(dp53
g3
F0.05446104919893565
sg4
F217.399769029
sg5
F0.0340313
sg6
g52
sg7
F1312.585389880499
sg8
F0.8452005333333333
sg9
F644.080450975897
sg10
F630.1795221331023
sg11
F0.00596812046990787
ssS'lab_f'
p54
(dp55
g3
F0.10667678401414525
sg4
F459.811862319
sg5
F0.037044230769230774
sg6
g54
sg7
F1979.752977103823
sg8
F1.0238482307692305
sg9
F952.9623999557758
sg10
F1266.8751200145311
sg11
F0.00454986777751831
ssS'lab_a'
p56
(dp57
g3
F0.09231182309343705
sg4
F328.364713518
sg5
F0.04162137037037037
sg6
g56
sg7
F1501.788729031291
sg8
F0.9156934074074073
sg9
F865.8782446672216
sg10
F1178.4921330042048
sg11
F0.005784355863163562
ssS'W4-0'
p58
(dp59
g3
F0.09942652272179794
sg4
F507.528128864
sg5
F0.044565913043478254
sg6
g58
sg7
F2266.843856514589
sg8
F1.6294668695652175
sg9
F1186.0584419410493
sg10
F1912.8938253788874
sg11
F0.0037561593464490862
ssS'9-00'
p60
(dp61
g3
F0.08445437453632187
sg4
F228.910757078
sg5
F0.0381188947368421
sg6
g60
sg7
F1320.582060292179
sg8
F0.9116866842105263
sg9
F551.1746395770556
sg10
F945.9297589418651
sg11
F0.008475645784399197
ssS'43-2'
p62
(dp63
g3
F0.09313064379126348
sg4
F202.61586392
sg5
F0.039705090909090905
sg6
g62
sg7
F1805.1330973388685
sg8
F0.9023615454545453
sg9
F736.0261805144786
sg10
F859.6327961774047
sg11
F0.004014670924010979
ssS'Susteinable_updated'
p64
(dp65
g3
F0.06345871189186794
sg4
F306.232640231
sg5
F0.03018523404255319
sg6
g64
sg7
F1203.2028851169707
sg8
F0.6938262978723404
sg9
F631.8490022240355
sg10
F775.1264541807968
sg11
F0.0030460114360632896
ssS'MediaCache_updated'
p66
(dp67
g3
F0.10235099293574829
sg4
F259.235500151
sg5
F0.030743125
sg6
g66
sg7
F1080.7192749268818
sg8
F0.6797245625
sg9
F537.5178957579527
sg10
F791.8274335560491
sg11
F0.00479013894468365
ssS'Rustic_updated'
p68
(dp69
g3
F0.03445034056531813
sg4
F139.563097123
sg5
F0.017998589743589744
sg6
g68
sg7
F213.58462919960033
sg8
F0.22763843589743588
sg9
F192.90827980649655
sg10
F249.4098553671794
sg11
F0.0031410047528347843
ssS'office_d'
p70
(dp71
g3
F0.05492721055551611
sg4
F223.000648485
sg5
F0.031888466666666664
sg6
g70
sg7
F1293.433522605092
sg8
F0.6710243000000001
sg9
F600.2197470744105
sg10
F594.2697177356678
sg11
F0.006773218559066944
ssS'NLB'
p72
(dp73
g3
F0.08793622512106818
sg4
F515.155816848
sg5
F0.03721145161290322
sg6
g72
sg7
F2396.8474822286717
sg8
F1.215760806451613
sg9
F1049.8062813674394
sg10
F1424.3352088614163
sg11
F0.0037914422469786904
ssS'office_a'
p74
(dp75
g3
F0.10254082071583111
sg4
F277.71002236
sg5
F0.033959090909090904
sg6
g74
sg7
F2580.28648095681
sg8
F1.104891787878788
sg9
F837.452219066923
sg10
F1080.709352499745
sg11
F0.003527534793451124
ssS'office_c'
p76
(dp77
g3
F0.10860005828179838
sg4
F231.937135787
sg5
F0.035224
sg6
g76
sg7
F3282.6974936812403
sg8
F1.2067117
sg9
F962.2114005785846
sg10
F1377.6650716565823
sg11
F0.0040453218660571385
ssS'office_b'
p78
(dp79
g3
F0.0758086889894681
sg4
F303.00391238
sg5
F0.024023264705882355
sg6
g78
sg7
F610.5416770159999
sg8
F0.4598871470588235
sg9
F473.893087862081
sg10
F646.25117199494
sg11
F0.0025027096410846095
ssS'Lamuniere1_updated'
p80
(dp81
g3
F0.03479811946840217
sg4
F70.3888641949
sg5
F0.011422818181818183
sg6
g80
sg7
F107.13601689397443
sg8
F0.15396890909090907
sg9
F104.10623441476584
sg10
F106.07242663074213
sg11
F0.0025675008477711913
ssS'E60-1'
p82
(dp83
g3
F0.09843953015327163
sg4
F311.935428914
sg5
F0.03683468749999999
sg6
g82
sg7
F1639.8394916651534
sg8
F1.019215375
sg9
F798.278927180175
sg10
F1124.0521297234493
sg11
F0.0047118269574915154
ssS'modern-office-floor-plan-1_updated'
p84
(dp85
g3
F0.06650002386511118
sg4
F330.034919192
sg5
F0.023914814814814816
sg6
g84
sg7
F714.7129035432984
sg8
F0.5023457037037037
sg9
F476.6522636060697
sg10
F696.5816554509928
sg11
F0.002933887751103784
ssS'Vipiteno1_updated'
p86
(dp87
g3
F0.08351910558089329
sg4
F394.2019014
sg5
F0.02563924
sg6
g86
sg7
F1020.7539463067724
sg8
F0.6049447400000001
sg9
F542.5669983229144
sg10
F840.8218512997969
sg11
F0.0031457699633634997
ssS'N51-3'
p88
(dp89
g3
F0.10994894802304052
sg4
F489.762523667
sg5
F0.03744379166666666
sg6
g88
sg7
F2131.0412173393293
sg8
F1.2384059583333331
sg9
F1002.2128876393068
sg10
F1653.0423113514105
sg11
F0.005786948447290439
ssS'lab_intel'
p90
(dp91
g3
F0.09104226141066901
sg4
F226.851049569
sg5
F0.03498358536585366
sg6
g90
sg7
F1266.5254275183545
sg8
F0.6801566341463415
sg9
F672.9932999708827
sg10
F728.3683801203324
sg11
F0.005950206059049694
ssS'E56-3'
p92
(dp93
g3
F0.08734817174175101
sg4
F402.687919995
sg5
F0.03507164516129032
sg6
g92
sg7
F1587.1334188124488
sg8
F0.9262577741935484
sg9
F750.3243842254177
sg10
F1086.2505786891395
sg11
F0.004883167926983645
ssS'NW13-0'
p94
(dp95
g3
F0.11340029760966235
sg4
F343.364413465
sg5
F0.0435139
sg6
g94
sg7
F2003.3124805300013
sg8
F1.3577412
sg9
F944.723366175235
sg10
F1453.7366549795893
sg11
F0.005923994690240699
ssS'office-building-floor-plans-recently-third-floor-plan_updated'
p96
(dp97
g3
F0.11709895956658363
sg4
F882.412115919
sg5
F0.04316958333333334
sg6
g96
sg7
F2649.4182624870805
sg8
F1.3989215833333335
sg9
F1545.590381830035
sg10
F1896.5174357083647
sg11
F0.003261475035888245
ssS'sidneyriver_updated'
p98
(dp99
g3
F0.10884232901860229
sg4
F384.16868079
sg5
F0.03265333333333333
sg6
g98
sg7
F1628.7086472157114
sg8
F0.9579145277777779
sg9
F764.5527393867243
sg10
F1200.3007441628656
sg11
F0.0052560969782191455
ssS'NW17-0'
p100
(dp101
g3
F0.11251636308955613
sg4
F416.652981427
sg5
F0.042836318181818184
sg6
g100
sg7
F1968.104773604854
sg8
F1.5204070909090908
sg9
F1038.2877641152202
sg10
F1534.718173373171
sg11
F0.005154148923540438
ssS'VarzeaPaulistaFDE2_updated'
p102
(dp103
g3
F0.055046977521477046
sg4
F109.364412791
sg5
F0.024296857142857148
sg6
g102
sg7
F699.6344969126262
sg8
F0.4771534999999999
sg9
F327.46296426184153
sg10
F398.64879183690647
sg11
F0.004275027059627134
ssS'8-1'
p104
(dp105
g3
F0.11455268708956527
sg4
F355.645659761
sg5
F0.04035248484848485
sg6
g104
sg7
F2178.735659245667
sg8
F1.1849001212121213
sg9
F911.0365335678727
sg10
F1513.5872626980392
sg11
F0.006363594782259532
ssS'E55-3'
p106
(dp107
g3
F0.07438201100467823
sg4
F178.560984381
sg5
F0.028471702702702703
sg6
g106
sg7
F1060.856960689715
sg8
F0.5503203783783783
sg9
F483.55601985560554
sg10
F704.2870647486568
sg11
F0.005330278983950977
ssS'best-single-office-floor-plans-with-13_updated'
p108
(dp109
g3
F0.0665084317608128
sg4
F264.08252119
sg5
F0.02386583582089552
sg6
g108
sg7
F648.935196559853
sg8
F0.47744202985074635
sg9
F376.8930980054692
sg10
F595.0117608897857
sg11
F0.0029387882800798655
ssS'battle_creekhs_2_updated'
p110
(dp111
g3
F0.0670678460074153
sg4
F184.26767039
sg5
F0.0267196
sg6
g110
sg7
F756.3200632779256
sg8
F0.560297975
sg9
F425.4933714978109
sg10
F525.4347002179115
sg11
F0.004102536586064773
ssS'ClassForAction_updated'
p112
(dp113
g3
F0.07848497357598878
sg4
F315.208834345
sg5
F0.02675581632653061
sg6
g112
sg7
F911.0742280643269
sg8
F0.5465737959183674
sg9
F518.0294204559082
sg10
F631.8001582686626
sg11
F0.0029690029775245714
ssS'plans2_updated'
p114
(dp115
g3
F0.043953561830008446
sg4
F164.168805265
sg5
F0.023959475
sg6
g114
sg7
F619.2709615156408
sg8
F0.47581217500000006
sg9
F365.537709899195
sg10
F335.71324018187687
sg11
F0.004037618883621261
ssS'24-1'
p116
(dp117
g3
F0.06838006003111854
sg4
F274.851451092
sg5
F0.03220421875
sg6
g116
sg7
F1658.023129640381
sg8
F1.0056348750000002
sg9
F655.0083738126488
sg10
F1026.2924094293276
sg11
F0.004083471223530102
ssS'324-Elm-Furn-Plan_updated'
p118
(dp119
g3
F0.06833873285247231
sg4
F323.202257539
sg5
F0.024927315789473686
sg6
g118
sg7
F666.4983853770151
sg8
F0.5182395000000001
sg9
F485.0274630894739
sg10
F629.6039065676443
sg11
F0.0033535156580368104
ssS'Sabadell3_updated'
p120
(dp121
g3
F0.05083129821030693
sg4
F100.694065881
sg5
F0.01925942105263158
sg6
g120
sg7
F234.83331812981754
sg8
F0.2480882105263158
sg9
F207.09729301036228
sg10
F195.02660165325653
sg11
F0.003610673431609708
ssS'Borchen4_updated'
p122
(dp123
g3
F0.016818393919336056
sg4
F72.3563650818
sg5
F0.011060116279069767
sg6
g122
sg7
F74.50367770901826
sg8
F0.08583220930232559
sg9
F109.71711412354152
sg10
F133.10201051793663
sg11
F0.001792296113529291
ssS'NW14-4'
p124
(dp125
g3
F0.09526596631525283
sg4
F305.381141884
sg5
F0.033039599999999995
sg6
g124
sg7
F2089.556893925054
sg8
F1.1250932333333334
sg9
F781.4959643063584
sg10
F1123.5652172723687
sg11
F0.004127620489660679
ssS'Franch1_updated'
p126
(dp127
g3
F0.019219840217430634
sg4
F91.7352314532
sg5
F0.014268529411764708
sg6
g126
sg7
F128.52254334399672
sg8
F0.16117432352941177
sg9
F153.42195553884994
sg10
F161.81352444898695
sg11
F0.001600164370882201
ssS'130604-Plan_updated'
p128
(dp129
g3
F0.08064452064438382
sg4
F398.099932842
sg5
F0.02928648571428572
sg6
g128
sg7
F904.0637767070992
sg8
F0.5705172571428572
sg9
F556.4176846241827
sg10
F837.3795500298131
sg11
F0.004803741603443409
ssS'Neulengbach1_updated'
p130
(dp131
g3
F0.08329368852222692
sg4
F356.932278712
sg5
F0.03458671428571429
sg6
g130
sg7
F1419.7230047168903
sg8
F0.9230769285714286
sg9
F781.1456666853762
sg10
F1138.1142575167655
sg11
F0.006307579696892705
ssS'amazing-office-floor-plans-4-executive-office-floor-plans-3082-x-1900_updated'
p132
(dp133
g3
F0.05121456431803371
sg4
F373.15448394
sg5
F0.03528884210526316
sg6
g132
sg7
F1142.0833867074423
sg8
F0.5744827631578948
sg9
F754.2579855434261
sg10
F894.5885924634144
sg11
F0.005084338421623364
ssS'floor-1024x523_updated'
p134
(dp135
g3
F0.10422620640407551
sg4
F562.489306351
sg5
F0.033315513513513514
sg6
g134
sg7
F1270.0113365777538
sg8
F0.7108525135135135
sg9
F787.8402730804114
sg10
F1103.31383976918
sg11
F0.006764168228051764
ssS'44-1'
p136
(dp137
g3
F0.0957262351876949
sg4
F193.837802558
sg5
F0.04113200000000001
sg6
g136
sg7
F2744.2601602940817
sg8
F1.2489561111111112
sg9
F969.4795945752498
sg10
F1061.2424537735844
sg11
F0.005140533089519456
ssS'CivicMemories_updated'
p138
(dp139
g3
F0.08206956418053289
sg4
F447.509475737
sg5
F0.03302295652173913
sg6
g138
sg7
F1732.2582904488777
sg8
F0.8529260000000001
sg9
F853.1471392482637
sg10
F1301.201742956502
sg11
F0.003453772801347395
ssS'bronxville_updated'
p140
(dp141
g3
F0.08000108358578606
sg4
F316.663949145
sg5
F0.027709756756756757
sg6
g140
sg7
F1290.8331097877124
sg8
F0.6616712702702703
sg9
F635.719178662612
sg10
F761.308482419509
sg11
F0.004608169891794738
ssS'Neulengbach2_updated'
p142
(dp143
g3
F0.10196968603996732
sg4
F557.847336252
sg5
F0.03537816666666666
sg6
g142
sg7
F1695.106903509701
sg8
F0.9521757222222222
sg9
F868.122291339867
sg10
F1496.991569029015
sg11
F0.004001157822014356
ssS'scuola_sconosciuta_3_updated'
p144
(dp145
g3
F0.04960481664875068
sg4
F174.298551048
sg5
F0.023690000000000003
sg6
g144
sg7
F493.31872534761976
sg8
F0.3928847222222222
sg9
F289.2251952813754
sg10
F417.00865745254725
sg11
F0.0036897165202763207
ssS'awesome-cool-office-floor-plans-with-home-office-interior-offices-for-all-facilitiesconsultant_updated'
p146
(dp147
g3
F0.06625398552821811
sg4
F398.212119516
sg5
F0.033650566666666666
sg6
g146
sg7
F1061.4319540214863
sg8
F0.5512896
sg9
F655.4356704762524
sg10
F852.7041917644887
sg11
F0.006841111550439413
ssS'9-2'
p148
(dp149
g3
F0.11403208882532608
sg4
F583.420914533
sg5
F0.03988075675675675
sg6
g148
sg7
F2893.494092691294
sg8
F1.2726345675675674
sg9
F1270.5437433748289
sg10
F1696.1225848616373
sg11
F0.0031550169263725976
ssS'RomainRolland1_updated'
p150
(dp151
g3
F0.06363220327764034
sg4
F201.440983073
sg5
F0.03147209090909091
sg6
g150
sg7
F769.8657354356604
sg8
F0.6093918181818182
sg9
F497.23496175319747
sg10
F531.3904642528684
sg11
F0.009493668928238875
ssS'west_asheville_updated'
p152
(dp153
g3
F0.07506329818529214
sg4
F215.021800877
sg5
F0.02928642857142857
sg6
g152
sg7
F1274.5314652677337
sg8
F0.7884992142857145
sg9
F492.2634957321889
sg10
F772.5662119286159
sg11
F0.004793227286111783
ssS'SKF_FloorPlan_updated'
p154
(dp155
g3
F0.057648404286151686
sg4
F227.920641747
sg5
F0.02424002857142857
sg6
g154
sg7
F577.0012302608127
sg8
F0.48434894285714275
sg9
F378.13110090536736
sg10
F525.8422058500896
sg11
F0.0024996727155565707
ssS'ZELLENBOROS_GRUPPENZONE_updated'
p156
(dp157
g3
F0.08659257967045272
sg4
F354.095400755
sg5
F0.03145159574468085
sg6
g156
sg7
F822.3687692511411
sg8
F0.6711868723404255
sg9
F586.9178206283227
sg10
F666.1109292667417
sg11
F0.0065516610031661
ssS'Rocchio_floorplan_updated'
p158
(dp159
g3
F0.07899958764348708
sg4
F325.583209961
sg5
F0.030870883720930237
sg6
g158
sg7
F1548.3789402276564
sg8
F0.7306858604651163
sg9
F667.664420581279
sg10
F839.6654141039857
sg11
F0.0034009850570933422
ssS'Sicurezza_1_updated'
p160
(dp161
g3
F0.051137027215423875
sg4
F204.156578717
sg5
F0.021942782608695654
sg6
g160
sg7
F642.7902236338266
sg8
F0.4947517826086957
sg9
F381.03570854011156
sg10
F486.2353874354003
sg11
F0.0019818084616904773
ssS'putnam_junior_high_updated'
p162
(dp163
g3
F0.09822440806690909
sg4
F406.864345779
sg5
F0.035996
sg6
g162
sg7
F1903.2408037432324
sg8
F0.8320814615384615
sg9
F831.10198847039
sg10
F1270.9975607249105
sg11
F0.005026632955746309
ssS'executive-office-floor-plans-l-a622d60bb7a76a60_updated'
p164
(dp165
g3
F0.08311641335780362
sg4
F621.500380047
sg5
F0.030937861111111107
sg6
g164
sg7
F1166.6420329374491
sg8
F0.5809019166666667
sg9
F828.8851350501604
sg10
F988.9989239201753
sg11
F0.0038969638691392226
ssS'41-2'
p166
(dp167
g3
F0.14767082353083277
sg4
F499.679439246
sg5
F0.04909774074074074
sg6
g166
sg7
F3581.070867144812
sg8
F1.947881851851852
sg9
F1459.8735444209308
sg10
F2683.3904651343673
sg11
F0.004381113342287531
ssS'41-0'
p168
(dp169
g3
F0.10682806940046354
sg4
F237.928231852
sg5
F0.039537611111111114
sg6
g168
sg7
F2570.8780289917254
sg8
F1.4899029444444443
sg9
F867.2541056956168
sg10
F1403.4685672548653
sg11
F0.005687128333535191
ssS'41-1'
p170
(dp171
g3
F0.08318520961750014
sg4
F218.754687535
sg5
F0.040187909090909094
sg6
g170
sg7
F2381.5261698376466
sg8
F1.3571632727272727
sg9
F779.4071818239453
sg10
F1443.5831536816993
sg11
F0.0063676571466427185
ssS'Vieilley1_updated'
p172
(dp173
g3
F0.07997799777194899
sg4
F248.822360631
sg5
F0.03288166666666667
sg6
g172
sg7
F1129.6191463952664
sg8
F0.6092161111111111
sg9
F517.8472058458531
sg10
F969.4323492458459
sg11
F0.007107160558197627
ssS'Sabadell2_updated'
p174
(dp175
g3
F0.052122506185201256
sg4
F125.788143027
sg5
F0.019348795454545455
sg6
g174
sg7
F406.80238111344227
sg8
F0.34298870454545455
sg9
F228.31484214802177
sg10
F286.56524528040967
sg11
F0.003034679401814551
ssS'NewUrban_updated'
p176
(dp177
g3
F0.11840965831504643
sg4
F340.111338406
sg5
F0.041462235294117654
sg6
g176
sg7
F1712.5339245431137
sg8
F0.979490294117647
sg9
F884.1201882778695
sg10
F1200.7227552515326
sg11
F0.006316601923994048
ssS'first-choice-floor-plan-second-floor_updated'
p178
(dp179
g3
F0.07848707354564792
sg4
F171.488140082
sg5
F0.024705555555555557
sg6
g178
sg7
F625.2823253582275
sg8
F0.5269705925925926
sg9
F345.3115501025136
sg10
F540.5836958981763
sg11
F0.003545084320507225
ssS'scuola_sconosciuta_updated'
p180
(dp181
g3
F0.05693539282325858
sg4
F236.563311317
sg5
F0.019071555555555557
sg6
g180
sg7
F399.2749957128387
sg8
F0.29911648888888887
sg9
F239.50419356860658
sg10
F495.6888794160203
sg11
F0.004072093993433603
ssS'54-3'
p182
(dp183
g3
F0.059964419186841325
sg4
F147.625909896
sg5
F0.023604
sg6
g182
sg7
F1087.829322416624
sg8
F0.5675892352941175
sg9
F416.4567408647917
sg10
F368.5209775939213
sg11
F0.003102818301442208
ssS'48-3'
p184
(dp185
g3
F0.11600254966071949
sg4
F288.507445152
sg5
F0.031835852459016385
sg6
g184
sg7
F1951.5824048416737
sg8
F1.075467442622951
sg9
F718.730535771435
sg10
F1340.5820055066793
sg11
F0.0057379083406562574
ssS'7A-2'
p186
(dp187
g3
F0.07043669548951734
sg4
F142.066537508
sg5
F0.031982857142857146
sg6
g186
sg7
F576.2403178855466
sg8
F0.5205634285714285
sg9
F364.2424916440506
sg10
F450.10327703100694
sg11
F0.01239070002359955
ssS'Valleceppi_P0_updated'
p188
(dp189
g3
F0.04979437441954979
sg4
F221.346577029
sg5
F0.021077170212765957
sg6
g188
sg7
F392.6988462886491
sg8
F0.31324368085106385
sg9
F278.79517067953196
sg10
F474.93288140168767
sg11
F0.0031333088167686857
ssS'Liselotte1_updated'
p190
(dp191
g3
F0.05122664897968146
sg4
F123.800417553
sg5
F0.0154238125
sg6
g190
sg7
F211.8781464021029
sg8
F0.26762375
sg9
F171.55615877383704
sg10
F254.10140211738812
sg11
F0.0012825053469064955
ssS'Valleceppi_P1_updated'
p192
(dp193
g3
F0.05569626304134008
sg4
F182.387684298
sg5
F0.020350749999999997
sg6
g192
sg7
F323.90541077468765
sg8
F0.28338015909090913
sg9
F263.8816544816675
sg10
F372.08603813997064
sg11
F0.00288341081269609
ssS'modern-office-building-floor-plan-and-office-building-floor-plan-by-realty-floorplans-in-central-illinois-14_updated'
p194
(dp195
g3
F0.07766089410399166
sg4
F167.645659414
sg5
F0.023825254545454547
sg6
g194
sg7
F692.4960950121233
sg8
F0.4659333636363635
sg9
F334.74818919015024
sg10
F587.0963598827541
sg11
F0.0031675417553001964
ssS'office1_fs_updated'
p196
(dp197
g3
F0.06421022492352597
sg4
F186.969683793
sg5
F0.02631942857142857
sg6
g196
sg7
F775.363834452409
sg8
F0.4534851142857143
sg9
F388.21348460283264
sg10
F673.3519816641764
sg11
F0.0063205895262375385
ssS'N10-2'
p198
(dp199
g3
F0.06549375530947359
sg4
F139.174438239
sg5
F0.026748499999999998
sg6
g198
sg7
F688.0660882134565
sg8
F0.5160698529411765
sg9
F351.30407964623936
sg10
F455.29529697913256
sg11
F0.005478825304806518
ssS'N10-1'
p200
(dp201
g3
F0.08798701583270908
sg4
F180.209895744
sg5
F0.02853829166666667
sg6
g200
sg7
F915.074472948484
sg8
F0.5493179791666667
sg9
F443.0508799203483
sg10
F585.1814252128581
sg11
F0.004972149254255872
ssS'south_mountain_school_1_updated'
p202
(dp203
g3
F0.06977620174717324
sg4
F290.837964376
sg5
F0.03125763333333334
sg6
g202
sg7
F1150.287975171976
sg8
F0.8114117333333333
sg9
F552.1285216018256
sg10
F778.750209601832
sg11
F0.0054195957320531665
ssS'south_mountain_school_2_updated'
p204
(dp205
g3
F0.08149354489695058
sg4
F241.046824794
sg5
F0.028754192307692304
sg6
g204
sg7
F1117.9118069640103
sg8
F0.6751338846153845
sg9
F522.1730801290342
sg10
F815.7412794801585
sg11
F0.0066830782406545304
ssS'FALAELEM1_updated'
p206
(dp207
g3
F0.10980069348221418
sg4
F402.180219217
sg5
F0.03676319444444445
sg6
g206
sg7
F2379.5157075649286
sg8
F1.1974258611111113
sg9
F865.7277156417972
sg10
F1449.4460644711028
sg11
F0.005726596714839764
ssS'cunningham2f_updated'
p208
(dp209
g3
F0.08206934654294516
sg4
F360.770721279
sg5
F0.03225506557377049
sg6
g208
sg7
F1516.5118325736119
sg8
F0.7637325409836065
sg9
F760.7421488537002
sg10
F892.3305540859798
sg11
F0.004730384682200986
ssS'Lower-Level_updated'
p210
(dp211
g3
F0.13988908710232184
sg4
F617.72175471
sg5
F0.04084422222222222
sg6
g210
sg7
F2616.843534226444
sg8
F1.2011542222222222
sg9
F1171.6242040553361
sg10
F2160.023452323488
sg11
F0.0033541351960796463
ss.